; Function Attrs: mustprogress nounwind uwtable
define internal void @_ZN7rocksdb12_GLOBAL__N_115HashLinkListRep16FullListIteratorD2Ev(ptr noundef nonnull align 8 dereferenceable(72) %this) unnamed_addr #0 align 2 personality ptr @__gxx_personality_v0 {
entry:
  store ptr getelementptr inbounds ({ [13 x ptr] }, ptr @_ZTVN7rocksdb12_GLOBAL__N_115HashLinkListRep16FullListIteratorE, i64 0, i32 0, i64 2), ptr %this, align 8
  %tmp_ = getelementptr inbounds i8, ptr %this, i64 40
  tail call void @_ZNSt7__cxx1112basic_stringIcSt11char_traitsIcESaIcEED1Ev(ptr noundef nonnull align 8 dereferenceable(32) %tmp_) #25
  %allocator_ = getelementptr inbounds i8, ptr %this, i64 32
  %0 = load ptr, ptr %allocator_, align 8
  %cmp.not.i = icmp eq ptr %0, null
  br i1 %cmp.not.i, label %_ZNSt10unique_ptrIN7rocksdb9AllocatorESt14default_deleteIS1_EED2Ev.exit, label %_ZNKSt14default_deleteIN7rocksdb9AllocatorEEclEPS1_.exit.i

_ZNKSt14default_deleteIN7rocksdb9AllocatorEEclEPS1_.exit.i: ; preds = %entry
  %vtable.i.i = load ptr, ptr %0, align 8
  %vfn.i.i = getelementptr inbounds i8, ptr %vtable.i.i, i64 8
  %1 = load ptr, ptr %vfn.i.i, align 8
  tail call void %1(ptr noundef nonnull align 8 dereferenceable(8) %0) #25
  br label %_ZNSt10unique_ptrIN7rocksdb9AllocatorESt14default_deleteIS1_EED2Ev.exit

_ZNSt10unique_ptrIN7rocksdb9AllocatorESt14default_deleteIS1_EED2Ev.exit: ; preds = %entry, %_ZNKSt14default_deleteIN7rocksdb9AllocatorEEclEPS1_.exit.i
  store ptr null, ptr %allocator_, align 8
  %full_list_ = getelementptr inbounds i8, ptr %this, i64 24
  %2 = load ptr, ptr %full_list_, align 8
  %cmp.not.i1 = icmp eq ptr %2, null
  br i1 %cmp.not.i1, label %_ZNSt10unique_ptrIN7rocksdb8SkipListIPKcRKNS0_11MemTableRep13KeyComparatorEEESt14default_deleteIS8_EED2Ev.exit, label %_ZNKSt14default_deleteIN7rocksdb8SkipListIPKcRKNS0_11MemTableRep13KeyComparatorEEEEclEPS8_.exit.i

_ZNKSt14default_deleteIN7rocksdb8SkipListIPKcRKNS0_11MemTableRep13KeyComparatorEEEEclEPS8_.exit.i: ; preds = %_ZNSt10unique_ptrIN7rocksdb9AllocatorESt14default_deleteIS1_EED2Ev.exit
  tail call void @_ZdlPv(ptr noundef nonnull %2) #23
  br label %_ZNSt10unique_ptrIN7rocksdb8SkipListIPKcRKNS0_11MemTableRep13KeyComparatorEEESt14default_deleteIS8_EED2Ev.exit

_ZNSt10unique_ptrIN7rocksdb8SkipListIPKcRKNS0_11MemTableRep13KeyComparatorEEESt14default_deleteIS8_EED2Ev.exit: ; preds = %_ZNSt10unique_ptrIN7rocksdb9AllocatorESt14default_deleteIS1_EED2Ev.exit, %_ZNKSt14default_deleteIN7rocksdb8SkipListIPKcRKNS0_11MemTableRep13KeyComparatorEEEEclEPS8_.exit.i
  store ptr null, ptr %full_list_, align 8
  ret void
}